; ModuleID = '40/1589.c'
source_filename = "40/1589.c"
target datalayout = "e-m:e-p270:32:32-p271:32:32-p272:64:64-i64:64-f80:128-n8:16:32:64-S128"
target triple = "x86_64-pc-linux-gnu"

@.str = private unnamed_addr constant [4 x i8] c"%lf\00", align 1
@a = common dso_local global double 0.000000e+00, align 8
@b = common dso_local global double 0.000000e+00, align 8
@c = common dso_local global double 0.000000e+00, align 8
@d = common dso_local global double 0.000000e+00, align 8
@angle = common dso_local global double 0.000000e+00, align 8
@.str.1 = private unnamed_addr constant [6 x i8] c"%.4lf\00", align 1
@.str.2 = private unnamed_addr constant [14 x i8] c"Invalid input\00", align 1
@s = common dso_local global double 0.000000e+00, align 8

; Function Attrs: noinline nounwind uwtable
define dso_local i32 @main() #0 {
  %1 = alloca i32, align 4
  store i32 0, i32* %1, align 4
  %2 = call i32 (i8*, ...) @__isoc99_scanf(i8* getelementptr inbounds ([4 x i8], [4 x i8]* @.str, i64 0, i64 0), double* @a)
  %3 = call i32 (i8*, ...) @__isoc99_scanf(i8* getelementptr inbounds ([4 x i8], [4 x i8]* @.str, i64 0, i64 0), double* @b)
  %4 = call i32 (i8*, ...) @__isoc99_scanf(i8* getelementptr inbounds ([4 x i8], [4 x i8]* @.str, i64 0, i64 0), double* @c)
  %5 = call i32 (i8*, ...) @__isoc99_scanf(i8* getelementptr inbounds ([4 x i8], [4 x i8]* @.str, i64 0, i64 0), double* @d)
  %6 = call i32 (i8*, ...) @__isoc99_scanf(i8* getelementptr inbounds ([4 x i8], [4 x i8]* @.str, i64 0, i64 0), double* @angle)
  %7 = load double, double* @a, align 8
  %8 = load double, double* @b, align 8
  %9 = load double, double* @c, align 8
  %10 = load double, double* @d, align 8
  %11 = load double, double* @angle, align 8
  %12 = call double @area(double %7, double %8, double %9, double %10, double %11)
  %13 = fcmp oge double %12, 0.000000e+00
  br i1 %13, label %14, label %22

14:                                               ; preds = %0
  %15 = load double, double* @a, align 8
  %16 = load double, double* @b, align 8
  %17 = load double, double* @c, align 8
  %18 = load double, double* @d, align 8
  %19 = load double, double* @angle, align 8
  %20 = call double @area(double %15, double %16, double %17, double %18, double %19)
  %21 = call i32 (i8*, ...) @printf(i8* getelementptr inbounds ([6 x i8], [6 x i8]* @.str.1, i64 0, i64 0), double %20)
  br label %24

22:                                               ; preds = %0
  %23 = call i32 (i8*, ...) @printf(i8* getelementptr inbounds ([14 x i8], [14 x i8]* @.str.2, i64 0, i64 0))
  br label %24

24:                                               ; preds = %22, %14
  %25 = load i32, i32* %1, align 4
  ret i32 %25
}

declare dso_local i32 @__isoc99_scanf(i8*, ...) #1

; Function Attrs: noinline nounwind uwtable
define dso_local double @area(double %0, double %1, double %2, double %3, double %4) #0 {
  %6 = alloca double, align 8
  %7 = alloca double, align 8
  %8 = alloca double, align 8
  %9 = alloca double, align 8
  %10 = alloca double, align 8
  %11 = alloca double, align 8
  %12 = alloca double, align 8
  %13 = alloca double, align 8
  %14 = alloca double, align 8
  %15 = alloca double, align 8
  store double %0, double* %7, align 8
  store double %1, double* %8, align 8
  store double %2, double* %9, align 8
  store double %3, double* %10, align 8
  store double %4, double* %11, align 8
  store double 0x400921FB4D12D84A, double* %15, align 8
  %16 = load double, double* %7, align 8
  %17 = load double, double* %8, align 8
  %18 = fadd double %16, %17
  %19 = load double, double* %9, align 8
  %20 = fadd double %18, %19
  %21 = load double, double* %10, align 8
  %22 = fadd double %20, %21
  %23 = fdiv double %22, 2.000000e+00
  store double %23, double* %13, align 8
  %24 = load double, double* %13, align 8
  %25 = load double, double* %7, align 8
  %26 = fsub double %24, %25
  %27 = load double, double* %13, align 8
  %28 = load double, double* %8, align 8
  %29 = fsub double %27, %28
  %30 = fmul double %26, %29
  %31 = load double, double* %13, align 8
  %32 = load double, double* %9, align 8
  %33 = fsub double %31, %32
  %34 = fmul double %30, %33
  %35 = load double, double* %13, align 8
  %36 = load double, double* %10, align 8
  %37 = fsub double %35, %36
  %38 = fmul double %34, %37
  %39 = load double, double* %7, align 8
  %40 = load double, double* %8, align 8
  %41 = fmul double %39, %40
  %42 = load double, double* %9, align 8
  %43 = fmul double %41, %42
  %44 = load double, double* %10, align 8
  %45 = fmul double %43, %44
  %46 = load double, double* %11, align 8
  %47 = fdiv double %46, 3.600000e+02
  %48 = load double, double* %15, align 8
  %49 = fmul double %47, %48
  %50 = call double @cos(double %49) #3
  %51 = fmul double %45, %50
  %52 = load double, double* %11, align 8
  %53 = fdiv double %52, 3.600000e+02
  %54 = load double, double* %15, align 8
  %55 = fmul double %53, %54
  %56 = call double @cos(double %55) #3
  %57 = fmul double %51, %56
  %58 = fsub double %38, %57
  store double %58, double* %14, align 8
  %59 = load double, double* %14, align 8
  %60 = fcmp oge double %59, 0.000000e+00
  br i1 %60, label %61, label %64

61:                                               ; preds = %5
  %62 = load double, double* %14, align 8
  %63 = call double @sqrt(double %62) #3
  store double %63, double* %6, align 8
  br label %65

64:                                               ; preds = %5
  store double -1.000000e+00, double* %6, align 8
  br label %65

65:                                               ; preds = %64, %61
  %66 = load double, double* %6, align 8
  ret double %66
}

declare dso_local i32 @printf(i8*, ...) #1

; Function Attrs: nounwind
declare dso_local double @cos(double) #2

; Function Attrs: nounwind
declare dso_local double @sqrt(double) #2


!llvm.module.flags = !{!0}
!llvm.ident = !{!1}

!0 = !{i32 1, !"wchar_size", i32 4}
!1 = !{!"clang version 10.0.0-4ubuntu1 "}
